target datalayout = "e-m:e-p270:32:32-p271:32:32-p272:64:64-i64:64-i128:128-f80:128-n8:16:32:64-S128"
target triple = "x86_64-pc-linux-gnu"

%"class.draco::ExpertEncoder" = type { %"class.draco::EncoderBase", ptr, ptr }
%"class.draco::EncoderBase" = type { ptr, %"class.draco::EncoderOptionsBase", i64, i64 }
%"class.draco::EncoderOptionsBase" = type { %"class.draco::DracoOptions", %"class.draco::Options" }
%"class.draco::DracoOptions" = type { %"class.draco::Options", %"class.std::map.0" }
%"class.std::map.0" = type { %"class.std::_Rb_tree.1" }
%"class.std::_Rb_tree.1" = type { %"struct.std::_Rb_tree<int, std::pair<const int, draco::Options>, std::_Select1st<std::pair<const int, draco::Options>>, std::less<int>>::_Rb_tree_impl" }
%"struct.std::_Rb_tree<int, std::pair<const int, draco::Options>, std::_Select1st<std::pair<const int, draco::Options>>, std::less<int>>::_Rb_tree_impl" = type { [8 x i8], %"struct.std::_Rb_tree_header" }
%"struct.std::_Rb_tree_header" = type { %"struct.std::_Rb_tree_node_base", i64 }
%"struct.std::_Rb_tree_node_base" = type { i32, ptr, ptr, ptr }
%"class.draco::Options" = type { %"class.std::map" }
%"class.std::map" = type { %"class.std::_Rb_tree" }
%"class.std::_Rb_tree" = type { %"struct.std::_Rb_tree<std::__cxx11::basic_string<char>, std::pair<const std::__cxx11::basic_string<char>, std::__cxx11::basic_string<char>>, std::_Select1st<std::pair<const std::__cxx11::basic_string<char>, std::__cxx11::basic_string<char>>>, std::less<std::__cxx11::basic_string<char>>>::_Rb_tree_impl" }
%"struct.std::_Rb_tree<std::__cxx11::basic_string<char>, std::pair<const std::__cxx11::basic_string<char>, std::__cxx11::basic_string<char>>, std::_Select1st<std::pair<const std::__cxx11::basic_string<char>, std::__cxx11::basic_string<char>>>, std::less<std::__cxx11::basic_string<char>>>::_Rb_tree_impl" = type { [8 x i8], %"struct.std::_Rb_tree_header" }

@_ZTVN5draco13ExpertEncoderE = linkonce_odr unnamed_addr constant { [4 x ptr] } { [4 x ptr] [ptr null, ptr @_ZTIN5draco13ExpertEncoderE, ptr @_ZN5draco11EncoderBaseINS_18EncoderOptionsBaseIiEEED2Ev, ptr @_ZN5draco13ExpertEncoderD0Ev] }, comdat, align 8

; Function Attrs: mustprogress uwtable
define linkonce_odr void @_ZN5draco11EncoderBaseINS_18EncoderOptionsBaseIiEEEC2Ev(ptr noundef nonnull align 8 dereferenceable(168) %0) unnamed_addr #4 comdat align 2 {
  %2 = alloca ptr, align 8
  store ptr %0, ptr %2, align 8, !tbaa !35
  %3 = load ptr, ptr %2, align 8
  store ptr getelementptr inbounds inrange(-16, 16) ({ [4 x ptr] }, ptr @_ZTVN5draco11EncoderBaseINS_18EncoderOptionsBaseIiEEEE, i32 0, i32 0, i32 2), ptr %3, align 8, !tbaa !10
  %4 = getelementptr inbounds nuw %"class.draco::EncoderBase", ptr %3, i32 0, i32 1
  call void @_ZN5draco18EncoderOptionsBaseIiE20CreateDefaultOptionsEv(ptr dead_on_unwind writable sret(%"class.draco::EncoderOptionsBase") align 8 %4)
  %5 = getelementptr inbounds nuw %"class.draco::EncoderBase", ptr %3, i32 0, i32 2
  store i64 0, ptr %5, align 8, !tbaa !37
  %6 = getelementptr inbounds nuw %"class.draco::EncoderBase", ptr %3, i32 0, i32 3
  store i64 0, ptr %6, align 8, !tbaa !38
  ret void
}

; Function Attrs: mustprogress uwtable
define void @_ZN5draco13ExpertEncoderC2ERKNS_4MeshE(ptr noundef nonnull align 8 dereferenceable(184) %0, ptr noundef nonnull align 8 dereferenceable(216) %1) unnamed_addr #4 align 2 {
  %3 = alloca ptr, align 8
  %4 = alloca ptr, align 8
  store ptr %0, ptr %3, align 8, !tbaa !3
  store ptr %1, ptr %4, align 8, !tbaa !39
  %5 = load ptr, ptr %3, align 8
  call void @_ZN5draco11EncoderBaseINS_18EncoderOptionsBaseIiEEEC2Ev(ptr noundef nonnull align 8 dereferenceable(168) %5)
  store ptr getelementptr inbounds inrange(-16, 16) ({ [4 x ptr] }, ptr @_ZTVN5draco13ExpertEncoderE, i32 0, i32 0, i32 2), ptr %5, align 8, !tbaa !10
  %6 = getelementptr inbounds nuw %"class.draco::ExpertEncoder", ptr %5, i32 0, i32 1
  %7 = load ptr, ptr %4, align 8, !tbaa !39
  store ptr %7, ptr %6, align 8, !tbaa !12
  %8 = getelementptr inbounds nuw %"class.draco::ExpertEncoder", ptr %5, i32 0, i32 2
  %9 = load ptr, ptr %4, align 8, !tbaa !39
  store ptr %9, ptr %8, align 8, !tbaa !34
  ret void
}