; Function Attrs: mustprogress uwtable
define void @_ZN5draco13ExpertEncoderC2ERKNS_4MeshE(ptr noundef nonnull align 8 dereferenceable(184) initializes((0, 8)) %0, ptr noundef nonnull align 8 dereferenceable(216) %1) unnamed_addr #3 align 2 {
  store ptr getelementptr inbounds nuw inrange(-16, 16) (i8, ptr @_ZTVN5draco11EncoderBaseINS_18EncoderOptionsBaseIiEEEE, i64 16), ptr %0, align 8, !tbaa !3
  %3 = getelementptr inbounds nuw i8, ptr %0, i64 8
  tail call void @_ZN5draco18EncoderOptionsBaseIiE20CreateDefaultOptionsEv(ptr dead_on_unwind nonnull writable sret(%"class.draco::EncoderOptionsBase") align 8 %3)
  %4 = getelementptr inbounds nuw i8, ptr %0, i64 152
  tail call void @llvm.memset.p0.i64(ptr noundef nonnull align 8 dereferenceable(16) %4, i8 0, i64 16, i1 false)
  store ptr getelementptr inbounds nuw inrange(-16, 16) (i8, ptr @_ZTVN5draco13ExpertEncoderE, i64 16), ptr %0, align 8, !tbaa !3
  %5 = getelementptr inbounds nuw i8, ptr %0, i64 168
  store ptr %1, ptr %5, align 8, !tbaa !6
  %6 = getelementptr inbounds nuw i8, ptr %0, i64 176
  store ptr %1, ptr %6, align 8, !tbaa !31
  ret void
}